ARM GAS  /tmp/cccS6RH8.s 			page 1


   1              		.syntax unified
   2              		.cpu cortex-m3
   3              		.fpu softvfp
   4              		.eabi_attribute 20, 1
   5              		.eabi_attribute 21, 1
   6              		.eabi_attribute 23, 3
   7              		.eabi_attribute 24, 1
   8              		.eabi_attribute 25, 1
   9              		.eabi_attribute 26, 1
  10              		.eabi_attribute 30, 2
  11              		.eabi_attribute 34, 1
  12              		.eabi_attribute 18, 4
  13              		.thumb
  14              		.file	"userthread.cpp"
  15              		.section	.text._ZN5amiro10UserThreadD2Ev,"ax",%progbits
  16              		.align	2
  17              		.p2align 4,,15
  18              		.global	_ZN5amiro10UserThreadD2Ev
  19              		.thumb
  20              		.thumb_func
  21              		.type	_ZN5amiro10UserThreadD2Ev, %function
  22              	_ZN5amiro10UserThreadD2Ev:
  23              		@ args = 0, pretend = 0, frame = 0
  24              		@ frame_needed = 0, uses_anonymous_args = 0
  25              		@ link register save eliminated.
  26 0000 014B     		ldr	r3, .L2
  27 0002 0360     		str	r3, [r0]
  28 0004 7047     		bx	lr
  29              	.L3:
  30 0006 00BF     		.align	2
  31              	.L2:
  32 0008 08000000 		.word	.LANCHOR0+8
  33              		.size	_ZN5amiro10UserThreadD2Ev, .-_ZN5amiro10UserThreadD2Ev
  34              		.global	_ZN5amiro10UserThreadD1Ev
  35              		.thumb_set _ZN5amiro10UserThreadD1Ev,_ZN5amiro10UserThreadD2Ev
  36 000c AFF30080 		.section	.text._ZN5amiro10UserThreadD0Ev,"ax",%progbits
  37              		.align	2
  38              		.p2align 4,,15
  39              		.global	_ZN5amiro10UserThreadD0Ev
  40              		.thumb
  41              		.thumb_func
  42              		.type	_ZN5amiro10UserThreadD0Ev, %function
  43              	_ZN5amiro10UserThreadD0Ev:
  44              		@ args = 0, pretend = 0, frame = 0
  45              		@ frame_needed = 0, uses_anonymous_args = 0
  46 0000 10B5     		push	{r4, lr}
  47 0002 034B     		ldr	r3, .L5
  48 0004 0446     		mov	r4, r0
  49 0006 0360     		str	r3, [r0]
  50 0008 FFF7FEFF 		bl	_ZdlPv
  51 000c 2046     		mov	r0, r4
  52 000e 10BD     		pop	{r4, pc}
  53              	.L6:
  54              		.align	2
  55              	.L5:
  56 0010 08000000 		.word	.LANCHOR0+8
  57              		.size	_ZN5amiro10UserThreadD0Ev, .-_ZN5amiro10UserThreadD0Ev
ARM GAS  /tmp/cccS6RH8.s 			page 2


  58 0014 AFF30080 		.section	.text._ZN10chibios_rt16BaseStaticThreadILi1024EE5startEm,"axG",%progbits,_ZN10chibios_rt1
  58      AFF30080 
  58      AFF30080 
  59              		.align	2
  60              		.p2align 4,,15
  61              		.weak	_ZN10chibios_rt16BaseStaticThreadILi1024EE5startEm
  62              		.thumb
  63              		.thumb_func
  64              		.type	_ZN10chibios_rt16BaseStaticThreadILi1024EE5startEm, %function
  65              	_ZN10chibios_rt16BaseStaticThreadILi1024EE5startEm:
  66              		@ args = 0, pretend = 0, frame = 0
  67              		@ frame_needed = 0, uses_anonymous_args = 0
  68 0000 30B5     		push	{r4, r5, lr}
  69 0002 0D46     		mov	r5, r1
  70 0004 83B0     		sub	sp, sp, #12
  71 0006 0446     		mov	r4, r0
  72 0008 0091     		str	r1, [sp]
  73 000a 05F10800 		add	r0, r5, #8
  74 000e 4FF49A61 		mov	r1, #1232
  75 0012 054B     		ldr	r3, .L8
  76 0014 FFF7FEFF 		bl	chThdCreateStatic
  77 0018 044A     		ldr	r2, .L8+4
  78 001a 0346     		mov	r3, r0
  79 001c 6860     		str	r0, [r5, #4]
  80 001e 2046     		mov	r0, r4
  81 0020 84E80C00 		stmia	r4, {r2, r3}
  82 0024 03B0     		add	sp, sp, #12
  83              		@ sp needed
  84 0026 30BD     		pop	{r4, r5, pc}
  85              	.L9:
  86              		.align	2
  87              	.L8:
  88 0028 00000000 		.word	_ZN10chibios_rt10_thd_startEPv
  89 002c 08000000 		.word	_ZTVN10chibios_rt15ThreadReferenceE+8
  90              		.size	_ZN10chibios_rt16BaseStaticThreadILi1024EE5startEm, .-_ZN10chibios_rt16BaseStaticThreadILi10
  91              		.section	.text._ZL8chprintfP20BaseSequentialStreamPKcz.constprop.1,"ax",%progbits
  92              		.align	2
  93              		.p2align 4,,15
  94              		.thumb
  95              		.thumb_func
  96              		.type	_ZL8chprintfP20BaseSequentialStreamPKcz.constprop.1, %function
  97              	_ZL8chprintfP20BaseSequentialStreamPKcz.constprop.1:
  98              		@ args = 4, pretend = 12, frame = 8
  99              		@ frame_needed = 0, uses_anonymous_args = 1
 100 0000 0EB4     		push	{r1, r2, r3}
 101 0002 00B5     		push	{lr}
 102 0004 82B0     		sub	sp, sp, #8
 103 0006 03AB     		add	r3, sp, #12
 104 0008 53F8041B 		ldr	r1, [r3], #4
 105 000c 0448     		ldr	r0, .L11
 106 000e 1A46     		mov	r2, r3
 107 0010 0193     		str	r3, [sp, #4]
 108 0012 FFF7FEFF 		bl	chvprintf
 109 0016 02B0     		add	sp, sp, #8
 110              		@ sp needed
 111 0018 5DF804EB 		ldr	lr, [sp], #4
 112 001c 03B0     		add	sp, sp, #12
ARM GAS  /tmp/cccS6RH8.s 			page 3


 113 001e 7047     		bx	lr
 114              	.L12:
 115              		.align	2
 116              	.L11:
 117 0020 00000000 		.word	SD1
 118              		.size	_ZL8chprintfP20BaseSequentialStreamPKcz.constprop.1, .-_ZL8chprintfP20BaseSequentialStreamPK
 119 0024 AFF30080 		.section	.text._Z14discriminationi,"ax",%progbits
 119      AFF30080 
 119      AFF30080 
 120              		.align	2
 121              		.p2align 4,,15
 122              		.global	_Z14discriminationi
 123              		.thumb
 124              		.thumb_func
 125              		.type	_Z14discriminationi, %function
 126              	_Z14discriminationi:
 127              		@ args = 0, pretend = 0, frame = 0
 128              		@ frame_needed = 0, uses_anonymous_args = 0
 129              		@ link register save eliminated.
 130 0000 B0F57A5F 		cmp	r0, #16000
 131 0004 ACBF     		ite	ge
 132 0006 0220     		movge	r0, #2
 133 0008 0020     		movlt	r0, #0
 134 000a 7047     		bx	lr
 135              		.size	_Z14discriminationi, .-_Z14discriminationi
 136 000c AFF30080 		.section	.text._Z12copyRpmSpeedRA2_KiRA2_i,"ax",%progbits
 137              		.align	2
 138              		.p2align 4,,15
 139              		.global	_Z12copyRpmSpeedRA2_KiRA2_i
 140              		.thumb
 141              		.thumb_func
 142              		.type	_Z12copyRpmSpeedRA2_KiRA2_i, %function
 143              	_Z12copyRpmSpeedRA2_KiRA2_i:
 144              		@ args = 0, pretend = 0, frame = 0
 145              		@ frame_needed = 0, uses_anonymous_args = 0
 146              		@ link register save eliminated.
 147 0000 0368     		ldr	r3, [r0]
 148 0002 0B60     		str	r3, [r1]
 149 0004 4368     		ldr	r3, [r0, #4]
 150 0006 4B60     		str	r3, [r1, #4]
 151 0008 7047     		bx	lr
 152              		.size	_Z12copyRpmSpeedRA2_KiRA2_i, .-_Z12copyRpmSpeedRA2_KiRA2_i
 153              		.global	__aeabi_i2f
 154              		.global	__aeabi_fmul
 155              		.global	__aeabi_fdiv
 156 000a 00BFAFF3 		.section	.text._Z13fuzzyficationiRA3_f,"ax",%progbits
 156      0080
 157              		.align	2
 158              		.p2align 4,,15
 159              		.global	_Z13fuzzyficationiRA3_f
 160              		.thumb
 161              		.thumb_func
 162              		.type	_Z13fuzzyficationiRA3_f, %function
 163              	_Z13fuzzyficationiRA3_f:
 164              		@ args = 0, pretend = 0, frame = 0
 165              		@ frame_needed = 0, uses_anonymous_args = 0
 166 0000 B0F5805F 		cmp	r0, #4096
ARM GAS  /tmp/cccS6RH8.s 			page 4


 167 0004 38B5     		push	{r3, r4, r5, lr}
 168 0006 0546     		mov	r5, r0
 169 0008 0C46     		mov	r4, r1
 170 000a 1CDB     		blt	.L27
 171 000c B0F5C04F 		cmp	r0, #24576
 172 0010 12DC     		bgt	.L28
 173 0012 B0F5605F 		cmp	r0, #14336
 174 0016 1DDA     		bge	.L21
 175 0018 B0F5C05F 		cmp	r0, #6144
 176 001c 30DD     		ble	.L22
 177 001e 0023     		movs	r3, #0
 178 0020 0B60     		str	r3, [r1]	@ float
 179              	.L23:
 180 0022 A5F58050 		sub	r0, r5, #4096
 181 0026 FFF7FEFF 		bl	__aeabi_i2f
 182 002a 1B49     		ldr	r1, .L29
 183 002c FFF7FEFF 		bl	__aeabi_fdiv
 184 0030 0023     		movs	r3, #0
 185 0032 6060     		str	r0, [r4, #4]	@ float
 186 0034 A360     		str	r3, [r4, #8]	@ float
 187 0036 38BD     		pop	{r3, r4, r5, pc}
 188              	.L28:
 189 0038 0023     		movs	r3, #0
 190 003a 4FF07E52 		mov	r2, #1065353216
 191 003e 0B60     		str	r3, [r1]	@ float
 192 0040 4B60     		str	r3, [r1, #4]	@ float
 193 0042 8A60     		str	r2, [r1, #8]	@ float
 194 0044 38BD     		pop	{r3, r4, r5, pc}
 195              	.L27:
 196 0046 0023     		movs	r3, #0
 197 0048 4FF07E52 		mov	r2, #1065353216
 198 004c 0A60     		str	r2, [r1]	@ float
 199 004e 4B60     		str	r3, [r1, #4]	@ float
 200 0050 8B60     		str	r3, [r1, #8]	@ float
 201 0052 38BD     		pop	{r3, r4, r5, pc}
 202              	.L21:
 203 0054 0023     		movs	r3, #0
 204 0056 B0F5C04F 		cmp	r0, #24576
 205 005a 0B60     		str	r3, [r1]	@ float
 206 005c 1AD0     		beq	.L24
 207 005e A0F5C040 		sub	r0, r0, #24576
 208 0062 FFF7FEFF 		bl	__aeabi_i2f
 209 0066 0D49     		ldr	r1, .L29+4
 210 0068 FFF7FEFF 		bl	__aeabi_fdiv
 211 006c 6060     		str	r0, [r4, #4]	@ float
 212              	.L25:
 213 006e A5F52050 		sub	r0, r5, #10240
 214 0072 FFF7FEFF 		bl	__aeabi_i2f
 215 0076 0A49     		ldr	r1, .L29+8
 216 0078 FFF7FEFF 		bl	__aeabi_fdiv
 217 007c A060     		str	r0, [r4, #8]	@ float
 218 007e 38BD     		pop	{r3, r4, r5, pc}
 219              	.L22:
 220 0080 A0F5C050 		sub	r0, r0, #6144
 221 0084 FFF7FEFF 		bl	__aeabi_i2f
 222 0088 4FF03A41 		mov	r1, #-1174405120
 223 008c FFF7FEFF 		bl	__aeabi_fmul
ARM GAS  /tmp/cccS6RH8.s 			page 5


 224 0090 2060     		str	r0, [r4]	@ float
 225 0092 C6E7     		b	.L23
 226              	.L24:
 227 0094 4B60     		str	r3, [r1, #4]	@ float
 228 0096 EAE7     		b	.L25
 229              	.L30:
 230              		.align	2
 231              	.L29:
 232 0098 00002046 		.word	1176502272
 233 009c 000020C6 		.word	-970981376
 234 00a0 00006046 		.word	1180696576
 235              		.size	_Z13fuzzyficationiRA3_f, .-_Z13fuzzyficationiRA3_f
 236              		.global	__aeabi_fcmpgt
 237 00a4 AFF30080 		.section	.text._Z9getMemberRA3_f,"ax",%progbits
 237      AFF30080 
 237      AFF30080 
 238              		.align	2
 239              		.p2align 4,,15
 240              		.global	_Z9getMemberRA3_f
 241              		.thumb
 242              		.thumb_func
 243              		.type	_Z9getMemberRA3_f, %function
 244              	_Z9getMemberRA3_f:
 245              		@ args = 0, pretend = 0, frame = 0
 246              		@ frame_needed = 0, uses_anonymous_args = 0
 247 0000 70B5     		push	{r4, r5, r6, lr}
 248 0002 4568     		ldr	r5, [r0, #4]	@ float
 249 0004 0668     		ldr	r6, [r0]	@ float
 250 0006 0446     		mov	r4, r0
 251 0008 2946     		mov	r1, r5
 252 000a 3046     		mov	r0, r6
 253 000c FFF7FEFF 		bl	__aeabi_fcmpgt
 254 0010 40B1     		cbz	r0, .L38
 255 0012 3046     		mov	r0, r6
 256 0014 A168     		ldr	r1, [r4, #8]	@ float
 257 0016 FFF7FEFF 		bl	__aeabi_fcmpgt
 258 001a 0028     		cmp	r0, #0
 259 001c 14BF     		ite	ne
 260 001e 0020     		movne	r0, #0
 261 0020 0220     		moveq	r0, #2
 262 0022 70BD     		pop	{r4, r5, r6, pc}
 263              	.L38:
 264 0024 2846     		mov	r0, r5
 265 0026 A168     		ldr	r1, [r4, #8]	@ float
 266 0028 FFF7FEFF 		bl	__aeabi_fcmpgt
 267 002c 0028     		cmp	r0, #0
 268 002e 14BF     		ite	ne
 269 0030 0120     		movne	r0, #1
 270 0032 0220     		moveq	r0, #2
 271 0034 70BD     		pop	{r4, r5, r6, pc}
 272              		.size	_Z9getMemberRA3_f, .-_Z9getMemberRA3_f
 273 0036 00BFAFF3 		.section	.text._Z15defuzzyficationRA4_11colorMemberRA2_i,"ax",%progbits
 273      0080AFF3 
 273      0080
 274              		.align	2
 275              		.p2align 4,,15
 276              		.global	_Z15defuzzyficationRA4_11colorMemberRA2_i
ARM GAS  /tmp/cccS6RH8.s 			page 6


 277              		.thumb
 278              		.thumb_func
 279              		.type	_Z15defuzzyficationRA4_11colorMemberRA2_i, %function
 280              	_Z15defuzzyficationRA4_11colorMemberRA2_i:
 281              		@ args = 0, pretend = 0, frame = 0
 282              		@ frame_needed = 0, uses_anonymous_args = 0
 283              		@ link register save eliminated.
 284 0000 10B4     		push	{r4}
 285 0002 C378     		ldrb	r3, [r0, #3]	@ zero_extendqisi2
 286 0004 8478     		ldrb	r4, [r0, #2]	@ zero_extendqisi2
 287 0006 0278     		ldrb	r2, [r0]	@ zero_extendqisi2
 288 0008 9C42     		cmp	r4, r3
 289 000a 13D0     		beq	.L78
 290              	.L41:
 291 000c 43B9     		cbnz	r3, .L43
 292              	.L82:
 293 000e 002A     		cmp	r2, #0
 294 0010 38D0     		beq	.L79
 295 0012 012A     		cmp	r2, #1
 296 0014 4CD0     		beq	.L80
 297 0016 022A     		cmp	r2, #2
 298 0018 24D0     		beq	.L81
 299              	.L39:
 300 001a 5DF8044B 		ldr	r4, [sp], #4
 301 001e 7047     		bx	lr
 302              	.L43:
 303 0020 8AB9     		cbnz	r2, .L45
 304 0022 012B     		cmp	r3, #1
 305 0024 34D1     		bne	.L46
 306 0026 264B     		ldr	r3, .L86
 307 0028 5DF8044B 		ldr	r4, [sp], #4
 308 002c 0CCB     		ldmia	r3, {r2, r3}
 309 002e 81E80C00 		stmia	r1, {r2, r3}
 310 0032 7047     		bx	lr
 311              	.L78:
 312 0034 9442     		cmp	r4, r2
 313 0036 E9D1     		bne	.L41
 314 0038 4278     		ldrb	r2, [r0, #1]	@ zero_extendqisi2
 315 003a A242     		cmp	r2, r4
 316 003c 0ED0     		beq	.L49
 317 003e 2246     		mov	r2, r4
 318 0040 002B     		cmp	r3, #0
 319 0042 EDD1     		bne	.L43
 320 0044 E3E7     		b	.L82
 321              	.L45:
 322 0046 54B3     		cbz	r4, .L83
 323 0048 4078     		ldrb	r0, [r0, #1]	@ zero_extendqisi2
 324 004a B0B1     		cbz	r0, .L51
 325 004c 012B     		cmp	r3, #1
 326 004e 0ED0     		beq	.L84
 327 0050 012A     		cmp	r2, #1
 328 0052 12D0     		beq	.L51
 329 0054 012C     		cmp	r4, #1
 330 0056 30D0     		beq	.L85
 331 0058 0128     		cmp	r0, #1
 332 005a 0ED0     		beq	.L51
 333              	.L49:
ARM GAS  /tmp/cccS6RH8.s 			page 7


 334 005c 0023     		movs	r3, #0
 335 005e 0B60     		str	r3, [r1]
 336 0060 4B60     		str	r3, [r1, #4]
 337 0062 DAE7     		b	.L39
 338              	.L81:
 339 0064 1422     		movs	r2, #20
 340 0066 3223     		movs	r3, #50
 341 0068 81E80C00 		stmia	r1, {r2, r3}
 342 006c D5E7     		b	.L39
 343              	.L84:
 344 006e 012A     		cmp	r2, #1
 345 0070 18D1     		bne	.L50
 346 0072 012C     		cmp	r4, #1
 347 0074 16D0     		beq	.L50
 348 0076 0128     		cmp	r0, #1
 349 0078 CFD1     		bne	.L39
 350              	.L51:
 351 007a 124B     		ldr	r3, .L86+4
 352 007c 0CCB     		ldmia	r3, {r2, r3}
 353 007e 81E80C00 		stmia	r1, {r2, r3}
 354 0082 CAE7     		b	.L39
 355              	.L79:
 356 0084 1E23     		movs	r3, #30
 357 0086 0B60     		str	r3, [r1]
 358 0088 4B60     		str	r3, [r1, #4]
 359 008a 5DF8044B 		ldr	r4, [sp], #4
 360 008e 7047     		bx	lr
 361              	.L46:
 362 0090 022B     		cmp	r3, #2
 363 0092 C2D1     		bne	.L39
 364 0094 0C4B     		ldr	r3, .L86+8
 365 0096 0CCB     		ldmia	r3, {r2, r3}
 366 0098 81E80C00 		stmia	r1, {r2, r3}
 367 009c BDE7     		b	.L39
 368              	.L83:
 369 009e 4378     		ldrb	r3, [r0, #1]	@ zero_extendqisi2
 370 00a0 002B     		cmp	r3, #0
 371 00a2 DBD0     		beq	.L49
 372              	.L50:
 373 00a4 6FF01302 		mvn	r2, #19
 374 00a8 1423     		movs	r3, #20
 375 00aa 81E80C00 		stmia	r1, {r2, r3}
 376 00ae B4E7     		b	.L39
 377              	.L80:
 378 00b0 1E22     		movs	r2, #30
 379 00b2 3223     		movs	r3, #50
 380 00b4 81E80C00 		stmia	r1, {r2, r3}
 381 00b8 AFE7     		b	.L39
 382              	.L85:
 383 00ba 0128     		cmp	r0, #1
 384 00bc F2D1     		bne	.L50
 385 00be CDE7     		b	.L49
 386              	.L87:
 387              		.align	2
 388              	.L86:
 389 00c0 00000000 		.word	.LANCHOR1
 390 00c4 00000000 		.word	.LANCHOR3
ARM GAS  /tmp/cccS6RH8.s 			page 8


 391 00c8 00000000 		.word	.LANCHOR2
 392              		.size	_Z15defuzzyficationRA4_11colorMemberRA2_i, .-_Z15defuzzyficationRA4_11colorMemberRA2_i
 393 00cc AFF30080 		.section	.text._Z11memberToLed11colorMember,"ax",%progbits
 394              		.align	2
 395              		.p2align 4,,15
 396              		.global	_Z11memberToLed11colorMember
 397              		.thumb
 398              		.thumb_func
 399              		.type	_Z11memberToLed11colorMember, %function
 400              	_Z11memberToLed11colorMember:
 401              		@ args = 0, pretend = 0, frame = 0
 402              		@ frame_needed = 0, uses_anonymous_args = 0
 403 0000 0129     		cmp	r1, #1
 404 0002 10B5     		push	{r4, lr}
 405 0004 0446     		mov	r4, r0
 406 0006 11D0     		beq	.L90
 407 0008 0BD3     		bcc	.L91
 408 000a 0229     		cmp	r1, #2
 409 000c 04D0     		beq	.L92
 410 000e 8F21     		movs	r1, #143
 411 0010 FFF7FEFF 		bl	_ZN5amiro5ColorC1ENS0_11GlobalColorE
 412 0014 2046     		mov	r0, r4
 413 0016 10BD     		pop	{r4, pc}
 414              	.L92:
 415 0018 7721     		movs	r1, #119
 416 001a FFF7FEFF 		bl	_ZN5amiro5ColorC1ENS0_11GlobalColorE
 417 001e 2046     		mov	r0, r4
 418 0020 10BD     		pop	{r4, pc}
 419              	.L91:
 420 0022 3721     		movs	r1, #55
 421 0024 FFF7FEFF 		bl	_ZN5amiro5ColorC1ENS0_11GlobalColorE
 422 0028 2046     		mov	r0, r4
 423 002a 10BD     		pop	{r4, pc}
 424              	.L90:
 425 002c 9121     		movs	r1, #145
 426 002e FFF7FEFF 		bl	_ZN5amiro5ColorC1ENS0_11GlobalColorE
 427 0032 2046     		mov	r0, r4
 428 0034 10BD     		pop	{r4, pc}
 429              		.size	_Z11memberToLed11colorMember, .-_Z11memberToLed11colorMember
 430 0036 00BFAFF3 		.section	.text._Z13lineFollowingRA4_iRA2_i,"ax",%progbits
 430      0080AFF3 
 430      0080
 431              		.align	2
 432              		.p2align 4,,15
 433              		.global	_Z13lineFollowingRA4_iRA2_i
 434              		.thumb
 435              		.thumb_func
 436              		.type	_Z13lineFollowingRA4_iRA2_i, %function
 437              	_Z13lineFollowingRA4_iRA2_i:
 438              		@ args = 0, pretend = 0, frame = 56
 439              		@ frame_needed = 0, uses_anonymous_args = 0
 440 0000 F0B5     		push	{r4, r5, r6, r7, lr}
 441 0002 8FB0     		sub	sp, sp, #60
 442 0004 0446     		mov	r4, r0
 443 0006 0F46     		mov	r7, r1
 444 0008 8068     		ldr	r0, [r0, #8]
 445 000a 02A9     		add	r1, sp, #8
ARM GAS  /tmp/cccS6RH8.s 			page 9


 446 000c FFF7FEFF 		bl	_Z13fuzzyficationiRA3_f
 447 0010 E068     		ldr	r0, [r4, #12]
 448 0012 05A9     		add	r1, sp, #20
 449 0014 FFF7FEFF 		bl	_Z13fuzzyficationiRA3_f
 450 0018 2068     		ldr	r0, [r4]
 451 001a 08A9     		add	r1, sp, #32
 452 001c FFF7FEFF 		bl	_Z13fuzzyficationiRA3_f
 453 0020 6068     		ldr	r0, [r4, #4]
 454 0022 0BA9     		add	r1, sp, #44
 455 0024 FFF7FEFF 		bl	_Z13fuzzyficationiRA3_f
 456 0028 029D     		ldr	r5, [sp, #8]	@ float
 457 002a 039C     		ldr	r4, [sp, #12]	@ float
 458 002c 2846     		mov	r0, r5
 459 002e 2146     		mov	r1, r4
 460 0030 FFF7FEFF 		bl	__aeabi_fcmpgt
 461 0034 0028     		cmp	r0, #0
 462 0036 6CD0     		beq	.L120
 463 0038 2846     		mov	r0, r5
 464 003a 0499     		ldr	r1, [sp, #16]	@ float
 465 003c FFF7FEFF 		bl	__aeabi_fcmpgt
 466 0040 0028     		cmp	r0, #0
 467 0042 14BF     		ite	ne
 468 0044 0024     		movne	r4, #0
 469 0046 0224     		moveq	r4, #2
 470              	.L98:
 471 0048 059E     		ldr	r6, [sp, #20]	@ float
 472 004a 069D     		ldr	r5, [sp, #24]	@ float
 473 004c 3046     		mov	r0, r6
 474 004e 2946     		mov	r1, r5
 475 0050 8DF80640 		strb	r4, [sp, #6]
 476 0054 FFF7FEFF 		bl	__aeabi_fcmpgt
 477 0058 0028     		cmp	r0, #0
 478 005a 75D0     		beq	.L121
 479 005c 3046     		mov	r0, r6
 480 005e 0799     		ldr	r1, [sp, #28]	@ float
 481 0060 FFF7FEFF 		bl	__aeabi_fcmpgt
 482 0064 0028     		cmp	r0, #0
 483 0066 14BF     		ite	ne
 484 0068 0023     		movne	r3, #0
 485 006a 0223     		moveq	r3, #2
 486              	.L101:
 487 006c 089E     		ldr	r6, [sp, #32]	@ float
 488 006e 099D     		ldr	r5, [sp, #36]	@ float
 489 0070 3046     		mov	r0, r6
 490 0072 2946     		mov	r1, r5
 491 0074 8DF80730 		strb	r3, [sp, #7]
 492 0078 FFF7FEFF 		bl	__aeabi_fcmpgt
 493 007c 0028     		cmp	r0, #0
 494 007e 5AD0     		beq	.L122
 495 0080 3046     		mov	r0, r6
 496 0082 0A99     		ldr	r1, [sp, #40]	@ float
 497 0084 FFF7FEFF 		bl	__aeabi_fcmpgt
 498 0088 0028     		cmp	r0, #0
 499 008a 14BF     		ite	ne
 500 008c 0023     		movne	r3, #0
 501 008e 0223     		moveq	r3, #2
 502              	.L104:
ARM GAS  /tmp/cccS6RH8.s 			page 10


 503 0090 0B9E     		ldr	r6, [sp, #44]	@ float
 504 0092 0C9D     		ldr	r5, [sp, #48]	@ float
 505 0094 3046     		mov	r0, r6
 506 0096 2946     		mov	r1, r5
 507 0098 8DF80430 		strb	r3, [sp, #4]
 508 009c FFF7FEFF 		bl	__aeabi_fcmpgt
 509 00a0 0028     		cmp	r0, #0
 510 00a2 3FD0     		beq	.L123
 511 00a4 3046     		mov	r0, r6
 512 00a6 0D99     		ldr	r1, [sp, #52]	@ float
 513 00a8 FFF7FEFF 		bl	__aeabi_fcmpgt
 514 00ac 0028     		cmp	r0, #0
 515 00ae 14BF     		ite	ne
 516 00b0 0023     		movne	r3, #0
 517 00b2 0223     		moveq	r3, #2
 518              	.L107:
 519 00b4 2146     		mov	r1, r4
 520 00b6 6846     		mov	r0, sp
 521 00b8 8DF80530 		strb	r3, [sp, #5]
 522 00bc FFF7FEFF 		bl	_Z11memberToLed11colorMember
 523 00c0 6A46     		mov	r2, sp
 524 00c2 2648     		ldr	r0, .L124
 525 00c4 0621     		movs	r1, #6
 526 00c6 FFF7FEFF 		bl	_ZN5amiro23ControllerAreaNetworkTx13setLightColorEiNS_5ColorE
 527 00ca 6846     		mov	r0, sp
 528 00cc 9DF80710 		ldrb	r1, [sp, #7]	@ zero_extendqisi2
 529 00d0 FFF7FEFF 		bl	_Z11memberToLed11colorMember
 530 00d4 6A46     		mov	r2, sp
 531 00d6 2148     		ldr	r0, .L124
 532 00d8 0721     		movs	r1, #7
 533 00da FFF7FEFF 		bl	_ZN5amiro23ControllerAreaNetworkTx13setLightColorEiNS_5ColorE
 534 00de 6846     		mov	r0, sp
 535 00e0 9DF80410 		ldrb	r1, [sp, #4]	@ zero_extendqisi2
 536 00e4 FFF7FEFF 		bl	_Z11memberToLed11colorMember
 537 00e8 6A46     		mov	r2, sp
 538 00ea 1C48     		ldr	r0, .L124
 539 00ec 0021     		movs	r1, #0
 540 00ee FFF7FEFF 		bl	_ZN5amiro23ControllerAreaNetworkTx13setLightColorEiNS_5ColorE
 541 00f2 6846     		mov	r0, sp
 542 00f4 9DF80510 		ldrb	r1, [sp, #5]	@ zero_extendqisi2
 543 00f8 FFF7FEFF 		bl	_Z11memberToLed11colorMember
 544 00fc 6A46     		mov	r2, sp
 545 00fe 1748     		ldr	r0, .L124
 546 0100 0121     		movs	r1, #1
 547 0102 FFF7FEFF 		bl	_ZN5amiro23ControllerAreaNetworkTx13setLightColorEiNS_5ColorE
 548 0106 3946     		mov	r1, r7
 549 0108 01A8     		add	r0, sp, #4
 550 010a FFF7FEFF 		bl	_Z15defuzzyficationRA4_11colorMemberRA2_i
 551 010e 0FB0     		add	sp, sp, #60
 552              		@ sp needed
 553 0110 F0BD     		pop	{r4, r5, r6, r7, pc}
 554              	.L120:
 555 0112 2046     		mov	r0, r4
 556 0114 0499     		ldr	r1, [sp, #16]	@ float
 557 0116 FFF7FEFF 		bl	__aeabi_fcmpgt
 558 011a 0028     		cmp	r0, #0
 559 011c 14BF     		ite	ne
ARM GAS  /tmp/cccS6RH8.s 			page 11


 560 011e 0124     		movne	r4, #1
 561 0120 0224     		moveq	r4, #2
 562 0122 91E7     		b	.L98
 563              	.L123:
 564 0124 2846     		mov	r0, r5
 565 0126 0D99     		ldr	r1, [sp, #52]	@ float
 566 0128 FFF7FEFF 		bl	__aeabi_fcmpgt
 567 012c 0028     		cmp	r0, #0
 568 012e 14BF     		ite	ne
 569 0130 0123     		movne	r3, #1
 570 0132 0223     		moveq	r3, #2
 571 0134 BEE7     		b	.L107
 572              	.L122:
 573 0136 2846     		mov	r0, r5
 574 0138 0A99     		ldr	r1, [sp, #40]	@ float
 575 013a FFF7FEFF 		bl	__aeabi_fcmpgt
 576 013e 0028     		cmp	r0, #0
 577 0140 14BF     		ite	ne
 578 0142 0123     		movne	r3, #1
 579 0144 0223     		moveq	r3, #2
 580 0146 A3E7     		b	.L104
 581              	.L121:
 582 0148 2846     		mov	r0, r5
 583 014a 0799     		ldr	r1, [sp, #28]	@ float
 584 014c FFF7FEFF 		bl	__aeabi_fcmpgt
 585 0150 0028     		cmp	r0, #0
 586 0152 14BF     		ite	ne
 587 0154 0123     		movne	r3, #1
 588 0156 0223     		moveq	r3, #2
 589 0158 88E7     		b	.L101
 590              	.L125:
 591 015a 00BF     		.align	2
 592              	.L124:
 593 015c A02D0000 		.word	global+11680
 594              		.size	_Z13lineFollowingRA4_iRA2_i, .-_Z13lineFollowingRA4_iRA2_i
 595              		.section	.text._Z11setRpmSpeedRA2_Ki,"ax",%progbits
 596              		.align	2
 597              		.p2align 4,,15
 598              		.global	_Z11setRpmSpeedRA2_Ki
 599              		.thumb
 600              		.thumb_func
 601              		.type	_Z11setRpmSpeedRA2_Ki, %function
 602              	_Z11setRpmSpeedRA2_Ki:
 603              		@ args = 0, pretend = 0, frame = 0
 604              		@ frame_needed = 0, uses_anonymous_args = 0
 605              		@ link register save eliminated.
 606 0000 044B     		ldr	r3, .L127
 607 0002 90E80600 		ldmia	r0, {r1, r2}
 608 0006 0448     		ldr	r0, .L127+4
 609 0008 03FB01F1 		mul	r1, r3, r1
 610 000c 03FB02F2 		mul	r2, r3, r2
 611 0010 FFF7FEBF 		b	_ZN5amiro12MotorControl12setTargetRPMEll
 612              	.L128:
 613              		.align	2
 614              	.L127:
 615 0014 40420F00 		.word	1000000
 616 0018 F8220000 		.word	global+8952
ARM GAS  /tmp/cccS6RH8.s 			page 12


 617              		.size	_Z11setRpmSpeedRA2_Ki, .-_Z11setRpmSpeedRA2_Ki
 618 001c AFF30080 		.section	.text._Z13getNextPolicyv,"ax",%progbits
 619              		.align	2
 620              		.p2align 4,,15
 621              		.global	_Z13getNextPolicyv
 622              		.thumb
 623              		.thumb_func
 624              		.type	_Z13getNextPolicyv, %function
 625              	_Z13getNextPolicyv:
 626              		@ args = 0, pretend = 0, frame = 0
 627              		@ frame_needed = 0, uses_anonymous_args = 0
 628              		@ link register save eliminated.
 629 0000 054B     		ldr	r3, .L132
 630 0002 0649     		ldr	r1, .L132+4
 631 0004 1A68     		ldr	r2, [r3]
 632 0006 0C2A     		cmp	r2, #12
 633 0008 D2BF     		itee	le
 634 000a 501C     		addle	r0, r2, #1
 635 000c 0420     		movgt	r0, #4
 636 000e 0322     		movgt	r2, #3
 637 0010 1860     		str	r0, [r3]
 638 0012 885C     		ldrb	r0, [r1, r2]	@ zero_extendqisi2
 639 0014 7047     		bx	lr
 640              	.L133:
 641 0016 00BF     		.align	2
 642              	.L132:
 643 0018 00000000 		.word	.LANCHOR4
 644 001c 00000000 		.word	.LANCHOR5
 645              		.size	_Z13getNextPolicyv, .-_Z13getNextPolicyv
 646              		.section	.text._Z13wallFollowingRA2_i,"ax",%progbits
 647              		.align	2
 648              		.p2align 4,,15
 649              		.global	_Z13wallFollowingRA2_i
 650              		.thumb
 651              		.thumb_func
 652              		.type	_Z13wallFollowingRA2_i, %function
 653              	_Z13wallFollowingRA2_i:
 654              		@ args = 0, pretend = 0, frame = 8
 655              		@ frame_needed = 0, uses_anonymous_args = 0
 656 0000 2DE9F04F 		push	{r4, r5, r6, r7, r8, r9, r10, fp, lr}
 657 0004 83B0     		sub	sp, sp, #12
 658 0006 0921     		movs	r1, #9
 659 0008 01A8     		add	r0, sp, #4
 660 000a FFF7FEFF 		bl	_ZN5amiro5ColorC1ENS0_11GlobalColorE
 661 000e 01AA     		add	r2, sp, #4
 662 0010 6248     		ldr	r0, .L168
 663 0012 0321     		movs	r1, #3
 664 0014 FFF7FEFF 		bl	_ZN5amiro23ControllerAreaNetworkTx13setLightColorEiNS_5ColorE
 665 0018 0921     		movs	r1, #9
 666 001a 01A8     		add	r0, sp, #4
 667 001c FFF7FEFF 		bl	_ZN5amiro5ColorC1ENS0_11GlobalColorE
 668 0020 01AA     		add	r2, sp, #4
 669 0022 5E48     		ldr	r0, .L168
 670 0024 0421     		movs	r1, #4
 671 0026 FFF7FEFF 		bl	_ZN5amiro23ControllerAreaNetworkTx13setLightColorEiNS_5ColorE
 672 002a 5D4D     		ldr	r5, .L168+4
 673 002c 5D4F     		ldr	r7, .L168+8
ARM GAS  /tmp/cccS6RH8.s 			page 13


 674 002e DFF88491 		ldr	r9, .L168+24
 675 0032 A846     		mov	r8, r5
 676 0034 4FF0000A 		mov	r10, #0
 677              	.L135:
 678 0038 0024     		movs	r4, #0
 679 003a DFF890B1 		ldr	fp, .L168+48
 680 003e 2646     		mov	r6, r4
 681              	.L156:
 682 0040 2146     		mov	r1, r4
 683 0042 5948     		ldr	r0, .L168+12
 684 0044 FFF7FEFF 		bl	_ZN5amiro23ControllerAreaNetworkRx21getProximityRingValueEi
 685 0048 0134     		adds	r4, r4, #1
 686 004a B0F5967F 		cmp	r0, #300
 687 004e B8BF     		it	lt
 688 0050 0136     		addlt	r6, r6, #1
 689 0052 082C     		cmp	r4, #8
 690 0054 4BF8040F 		str	r0, [fp, #4]!
 691 0058 F2D1     		bne	.L156
 692 005a 082E     		cmp	r6, #8
 693 005c 00F08880 		beq	.L165
 694 0060 EB68     		ldr	r3, [r5, #12]
 695 0062 2A69     		ldr	r2, [r5, #16]
 696 0064 9342     		cmp	r3, r2
 697 0066 34DC     		bgt	.L140
 698 0068 B3F5167F 		cmp	r3, #600
 699 006c 07DC     		bgt	.L141
 700 006e B2F5167F 		cmp	r2, #600
 701 0072 04DC     		bgt	.L141
 702 0074 D8F81430 		ldr	r3, [r8, #20]
 703 0078 B3F5167F 		cmp	r3, #600
 704 007c 34DD     		ble	.L149
 705              	.L141:
 706 007e AB69     		ldr	r3, [r5, #24]
 707 0080 B3F5C87F 		cmp	r3, #400
 708 0084 0CDA     		bge	.L146
 709              	.L147:
 710 0086 4948     		ldr	r0, .L168+16
 711 0088 4949     		ldr	r1, .L168+20
 712 008a 4A4A     		ldr	r2, .L168+24
 713 008c FFF7FEFF 		bl	_ZN5amiro12MotorControl12setTargetRPMEll
 714 0090 4548     		ldr	r0, .L168+12
 715 0092 0621     		movs	r1, #6
 716 0094 FFF7FEFF 		bl	_ZN5amiro23ControllerAreaNetworkRx21getProximityRingValueEi
 717 0098 B0F5C87F 		cmp	r0, #400
 718 009c A861     		str	r0, [r5, #24]
 719 009e F2DB     		blt	.L147
 720              	.L146:
 721 00a0 4FF0010A 		mov	r10, #1
 722              	.L144:
 723 00a4 4448     		ldr	r0, .L168+28
 724 00a6 FFF7FEFF 		bl	_ZN5amiro8VCNL402026getProximityScaledWoOffsetEv
 725 00aa 41F65834 		movw	r4, #7000
 726 00ae A042     		cmp	r0, r4
 727 00b0 3DD9     		bls	.L166
 728              	.L153:
 729 00b2 BAF1010F 		cmp	r10, #1
 730 00b6 4ED1     		bne	.L167
ARM GAS  /tmp/cccS6RH8.s 			page 14


 731 00b8 6B69     		ldr	r3, [r5, #20]
 732 00ba B3F5966F 		cmp	r3, #1200
 733 00be 47DB     		blt	.L159
 734 00c0 B3F5FA6F 		cmp	r3, #2000
 735 00c4 51DD     		ble	.L160
 736 00c6 3B4A     		ldr	r2, .L168+24
 737 00c8 3C49     		ldr	r1, .L168+32
 738              	.L155:
 739 00ca 3848     		ldr	r0, .L168+16
 740 00cc FFF7FEFF 		bl	_ZN5amiro12MotorControl12setTargetRPMEll
 741 00d0 B2E7     		b	.L135
 742              	.L140:
 743 00d2 D8F81410 		ldr	r1, [r8, #20]
 744 00d6 B1F5167F 		cmp	r1, #600
 745 00da D0DC     		bgt	.L141
 746 00dc B3F5167F 		cmp	r3, #600
 747 00e0 06DC     		bgt	.L148
 748 00e2 B2F5167F 		cmp	r2, #600
 749 00e6 03DC     		bgt	.L148
 750              	.L149:
 751 00e8 AB68     		ldr	r3, [r5, #8]
 752 00ea B3F5167F 		cmp	r3, #600
 753 00ee D9DD     		ble	.L144
 754              	.L148:
 755 00f0 6B68     		ldr	r3, [r5, #4]
 756 00f2 B3F5C87F 		cmp	r3, #400
 757 00f6 11DA     		bge	.L151
 758 00f8 314C     		ldr	r4, .L168+36
 759              	.L152:
 760 00fa 94E80600 		ldmia	r4, {r1, r2}
 761 00fe 2B48     		ldr	r0, .L168+16
 762 0100 07FB01F1 		mul	r1, r7, r1
 763 0104 07FB02F2 		mul	r2, r7, r2
 764 0108 FFF7FEFF 		bl	_ZN5amiro12MotorControl12setTargetRPMEll
 765 010c 2648     		ldr	r0, .L168+12
 766 010e 0121     		movs	r1, #1
 767 0110 FFF7FEFF 		bl	_ZN5amiro23ControllerAreaNetworkRx21getProximityRingValueEi
 768 0114 B0F5C87F 		cmp	r0, #400
 769 0118 6860     		str	r0, [r5, #4]
 770 011a EEDB     		blt	.L152
 771              	.L151:
 772 011c 2648     		ldr	r0, .L168+28
 773 011e FFF7FEFF 		bl	_ZN5amiro8VCNL402026getProximityScaledWoOffsetEv
 774 0122 41F65834 		movw	r4, #7000
 775 0126 A042     		cmp	r0, r4
 776 0128 4FF0FF3A 		mov	r10, #-1
 777 012c C1D8     		bhi	.L153
 778              	.L166:
 779 012e 2548     		ldr	r0, .L168+40
 780 0130 FFF7FEFF 		bl	_ZN5amiro8VCNL402026getProximityScaledWoOffsetEv
 781 0134 A042     		cmp	r0, r4
 782 0136 BCD8     		bhi	.L153
 783 0138 7721     		movs	r1, #119
 784 013a 01A8     		add	r0, sp, #4
 785 013c FFF7FEFF 		bl	_ZN5amiro5ColorC1ENS0_11GlobalColorE
 786 0140 1648     		ldr	r0, .L168
 787 0142 0321     		movs	r1, #3
ARM GAS  /tmp/cccS6RH8.s 			page 15


 788 0144 01AA     		add	r2, sp, #4
 789 0146 FFF7FEFF 		bl	_ZN5amiro23ControllerAreaNetworkTx13setLightColorEiNS_5ColorE
 790 014a 01A8     		add	r0, sp, #4
 791 014c 7721     		movs	r1, #119
 792 014e 1AE0     		b	.L164
 793              	.L159:
 794 0150 1A4A     		ldr	r2, .L168+32
 795 0152 1849     		ldr	r1, .L168+24
 796 0154 B9E7     		b	.L155
 797              	.L167:
 798 0156 AB68     		ldr	r3, [r5, #8]
 799 0158 1849     		ldr	r1, .L168+32
 800 015a B3F5966F 		cmp	r3, #1200
 801 015e ACBF     		ite	ge
 802 0160 0A46     		movge	r2, r1
 803 0162 4A46     		movlt	r2, r9
 804 0164 A8BF     		it	ge
 805 0166 4946     		movge	r1, r9
 806 0168 AFE7     		b	.L155
 807              	.L160:
 808 016a 174A     		ldr	r2, .L168+44
 809 016c 1146     		mov	r1, r2
 810 016e ACE7     		b	.L155
 811              	.L165:
 812 0170 0721     		movs	r1, #7
 813 0172 01A8     		add	r0, sp, #4
 814 0174 FFF7FEFF 		bl	_ZN5amiro5ColorC1ENS0_11GlobalColorE
 815 0178 0848     		ldr	r0, .L168
 816 017a 0321     		movs	r1, #3
 817 017c 01AA     		add	r2, sp, #4
 818 017e FFF7FEFF 		bl	_ZN5amiro23ControllerAreaNetworkTx13setLightColorEiNS_5ColorE
 819 0182 01A8     		add	r0, sp, #4
 820 0184 0721     		movs	r1, #7
 821              	.L164:
 822 0186 FFF7FEFF 		bl	_ZN5amiro5ColorC1ENS0_11GlobalColorE
 823 018a 01AA     		add	r2, sp, #4
 824 018c 0348     		ldr	r0, .L168
 825 018e 0421     		movs	r1, #4
 826 0190 FFF7FEFF 		bl	_ZN5amiro23ControllerAreaNetworkTx13setLightColorEiNS_5ColorE
 827 0194 03B0     		add	sp, sp, #12
 828              		@ sp needed
 829 0196 BDE8F08F 		pop	{r4, r5, r6, r7, r8, r9, r10, fp, pc}
 830              	.L169:
 831 019a 00BF     		.align	2
 832              	.L168:
 833 019c A02D0000 		.word	global+11680
 834 01a0 00000000 		.word	.LANCHOR6
 835 01a4 40420F00 		.word	1000000
 836 01a8 382F0000 		.word	global+12088
 837 01ac F8220000 		.word	global+8952
 838 01b0 00D3CEFE 		.word	-20000000
 839 01b4 002D3101 		.word	20000000
 840 01b8 48020000 		.word	global+584
 841 01bc 808D5B00 		.word	6000000
 842 01c0 00000000 		.word	.LANCHOR3
 843 01c4 48080000 		.word	global+2120
 844 01c8 00127A00 		.word	8000000
ARM GAS  /tmp/cccS6RH8.s 			page 16


 845 01cc FCFFFFFF 		.word	.LANCHOR6-4
 846              		.size	_Z13wallFollowingRA2_i, .-_Z13wallFollowingRA2_i
 847              		.section	.text.startup._ZN5amiro10UserThread4mainEv,"ax",%progbits
 848              		.align	2
 849              		.p2align 4,,15
 850              		.global	_ZN5amiro10UserThread4mainEv
 851              		.thumb
 852              		.thumb_func
 853              		.type	_ZN5amiro10UserThread4mainEv, %function
 854              	_ZN5amiro10UserThread4mainEv:
 855              		@ args = 0, pretend = 0, frame = 16
 856              		@ frame_needed = 0, uses_anonymous_args = 0
 857 0000 2DE9F047 		push	{r4, r5, r6, r7, r8, r9, r10, lr}
 858 0004 0024     		movs	r4, #0
 859 0006 84B0     		sub	sp, sp, #16
 860 0008 0294     		str	r4, [sp, #8]
 861 000a 0394     		str	r4, [sp, #12]
 862              	.L172:
 863 000c 0721     		movs	r1, #7
 864 000e 01A8     		add	r0, sp, #4
 865 0010 FFF7FEFF 		bl	_ZN5amiro5ColorC1ENS0_11GlobalColorE
 866 0014 2146     		mov	r1, r4
 867 0016 9848     		ldr	r0, .L198
 868 0018 01AA     		add	r2, sp, #4
 869 001a 0134     		adds	r4, r4, #1
 870 001c FFF7FEFF 		bl	_ZN5amiro23ControllerAreaNetworkTx13setLightColorEiNS_5ColorE
 871 0020 082C     		cmp	r4, #8
 872 0022 F3D1     		bne	.L172
 873 0024 DFF86082 		ldr	r8, .L198+16
 874 0028 4FF00009 		mov	r9, #0
 875 002c 88F80090 		strb	r9, [r8]
 876 0030 FFF7FEFF 		bl	_ZN10chibios_rt10BaseThread15shouldTerminateEv
 877 0034 914E     		ldr	r6, .L198+4
 878 0036 0446     		mov	r4, r0
 879 0038 0028     		cmp	r0, #0
 880 003a 40F0E280 		bne	.L194
 881              	.L188:
 882 003e 9048     		ldr	r0, .L198+8
 883 0040 0221     		movs	r1, #2
 884 0042 FFF7FEFF 		bl	_ZN5amiro9LIS331DLH20getAccelerationForceEh
 885 0046 8F4A     		ldr	r2, .L198+12
 886 0048 10F5617F 		cmn	r0, #900
 887 004c 1080     		strh	r0, [r2]	@ movhi
 888 004e 78DA     		bge	.L174
 889 0050 98F80030 		ldrb	r3, [r8]	@ zero_extendqisi2
 890 0054 8C4D     		ldr	r5, .L198+16
 891 0056 002B     		cmp	r3, #0
 892 0058 40F0DB80 		bne	.L195
 893 005c 0123     		movs	r3, #1
 894 005e 2B70     		strb	r3, [r5]
 895              	.L176:
 896 0060 0721     		movs	r1, #7
 897 0062 01A8     		add	r0, sp, #4
 898 0064 FFF7FEFF 		bl	_ZN5amiro5ColorC1ENS0_11GlobalColorE
 899 0068 0421     		movs	r1, #4
 900 006a 0DEB0102 		add	r2, sp, r1
 901 006e 8248     		ldr	r0, .L198
ARM GAS  /tmp/cccS6RH8.s 			page 17


 902 0070 FFF7FEFF 		bl	_ZN5amiro23ControllerAreaNetworkTx13setLightColorEiNS_5ColorE
 903 0074 0721     		movs	r1, #7
 904 0076 01A8     		add	r0, sp, #4
 905 0078 FFF7FEFF 		bl	_ZN5amiro5ColorC1ENS0_11GlobalColorE
 906 007c 01AA     		add	r2, sp, #4
 907 007e 7E48     		ldr	r0, .L198
 908 0080 0521     		movs	r1, #5
 909 0082 FFF7FEFF 		bl	_ZN5amiro23ControllerAreaNetworkTx13setLightColorEiNS_5ColorE
 910 0086 8F21     		movs	r1, #143
 911 0088 01A8     		add	r0, sp, #4
 912 008a FFF7FEFF 		bl	_ZN5amiro5ColorC1ENS0_11GlobalColorE
 913 008e 01AA     		add	r2, sp, #4
 914 0090 7948     		ldr	r0, .L198
 915 0092 0621     		movs	r1, #6
 916 0094 FFF7FEFF 		bl	_ZN5amiro23ControllerAreaNetworkTx13setLightColorEiNS_5ColorE
 917 0098 8F21     		movs	r1, #143
 918 009a 01A8     		add	r0, sp, #4
 919 009c FFF7FEFF 		bl	_ZN5amiro5ColorC1ENS0_11GlobalColorE
 920 00a0 01AA     		add	r2, sp, #4
 921 00a2 7548     		ldr	r0, .L198
 922 00a4 0721     		movs	r1, #7
 923 00a6 FFF7FEFF 		bl	_ZN5amiro23ControllerAreaNetworkTx13setLightColorEiNS_5ColorE
 924 00aa 8F21     		movs	r1, #143
 925 00ac 01A8     		add	r0, sp, #4
 926 00ae FFF7FEFF 		bl	_ZN5amiro5ColorC1ENS0_11GlobalColorE
 927 00b2 01AA     		add	r2, sp, #4
 928 00b4 7048     		ldr	r0, .L198
 929 00b6 0021     		movs	r1, #0
 930 00b8 FFF7FEFF 		bl	_ZN5amiro23ControllerAreaNetworkTx13setLightColorEiNS_5ColorE
 931 00bc 8F21     		movs	r1, #143
 932 00be 01A8     		add	r0, sp, #4
 933 00c0 FFF7FEFF 		bl	_ZN5amiro5ColorC1ENS0_11GlobalColorE
 934 00c4 01AA     		add	r2, sp, #4
 935 00c6 6C48     		ldr	r0, .L198
 936 00c8 0121     		movs	r1, #1
 937 00ca FFF7FEFF 		bl	_ZN5amiro23ControllerAreaNetworkTx13setLightColorEiNS_5ColorE
 938 00ce 0721     		movs	r1, #7
 939 00d0 01A8     		add	r0, sp, #4
 940 00d2 FFF7FEFF 		bl	_ZN5amiro5ColorC1ENS0_11GlobalColorE
 941 00d6 01AA     		add	r2, sp, #4
 942 00d8 6748     		ldr	r0, .L198
 943 00da 0221     		movs	r1, #2
 944 00dc FFF7FEFF 		bl	_ZN5amiro23ControllerAreaNetworkTx13setLightColorEiNS_5ColorE
 945 00e0 0721     		movs	r1, #7
 946 00e2 01A8     		add	r0, sp, #4
 947 00e4 FFF7FEFF 		bl	_ZN5amiro5ColorC1ENS0_11GlobalColorE
 948 00e8 01AA     		add	r2, sp, #4
 949 00ea 0321     		movs	r1, #3
 950 00ec 6248     		ldr	r0, .L198
 951 00ee FFF7FEFF 		bl	_ZN5amiro23ControllerAreaNetworkTx13setLightColorEiNS_5ColorE
 952 00f2 4FF47A70 		mov	r0, #1000
 953 00f6 FFF7FEFF 		bl	_ZN10chibios_rt10BaseThread5sleepEm
 954 00fa 0721     		movs	r1, #7
 955 00fc 01A8     		add	r0, sp, #4
 956 00fe FFF7FEFF 		bl	_ZN5amiro5ColorC1ENS0_11GlobalColorE
 957 0102 01AA     		add	r2, sp, #4
 958 0104 5C48     		ldr	r0, .L198
ARM GAS  /tmp/cccS6RH8.s 			page 18


 959 0106 0621     		movs	r1, #6
 960 0108 FFF7FEFF 		bl	_ZN5amiro23ControllerAreaNetworkTx13setLightColorEiNS_5ColorE
 961 010c 0721     		movs	r1, #7
 962 010e 01A8     		add	r0, sp, #4
 963 0110 FFF7FEFF 		bl	_ZN5amiro5ColorC1ENS0_11GlobalColorE
 964 0114 01AA     		add	r2, sp, #4
 965 0116 5848     		ldr	r0, .L198
 966 0118 0721     		movs	r1, #7
 967 011a FFF7FEFF 		bl	_ZN5amiro23ControllerAreaNetworkTx13setLightColorEiNS_5ColorE
 968 011e 0721     		movs	r1, #7
 969 0120 01A8     		add	r0, sp, #4
 970 0122 FFF7FEFF 		bl	_ZN5amiro5ColorC1ENS0_11GlobalColorE
 971 0126 01AA     		add	r2, sp, #4
 972 0128 5348     		ldr	r0, .L198
 973 012a 0021     		movs	r1, #0
 974 012c FFF7FEFF 		bl	_ZN5amiro23ControllerAreaNetworkTx13setLightColorEiNS_5ColorE
 975 0130 0721     		movs	r1, #7
 976 0132 01A8     		add	r0, sp, #4
 977 0134 FFF7FEFF 		bl	_ZN5amiro5ColorC1ENS0_11GlobalColorE
 978 0138 4F48     		ldr	r0, .L198
 979 013a 0121     		movs	r1, #1
 980 013c 01AA     		add	r2, sp, #4
 981 013e FFF7FEFF 		bl	_ZN5amiro23ControllerAreaNetworkTx13setLightColorEiNS_5ColorE
 982              	.L174:
 983 0142 98F80030 		ldrb	r3, [r8]	@ zero_extendqisi2
 984 0146 002B     		cmp	r3, #0
 985 0148 52D0     		beq	.L177
 986 014a 504D     		ldr	r5, .L198+20
 987 014c DFF864A1 		ldr	r10, .L198+60
 988 0150 4F4F     		ldr	r7, .L198+24
 989 0152 0024     		movs	r4, #0
 990              	.L179:
 991 0154 2846     		mov	r0, r5
 992 0156 FFF7FEFF 		bl	_ZN5amiro8VCNL402015getAmbientLightEv
 993 015a 4AF80400 		str	r0, [r10, r4]
 994 015e 2846     		mov	r0, r5
 995 0160 FFF7FEFF 		bl	_ZN5amiro8VCNL402026getProximityScaledWoOffsetEv
 996 0164 3851     		str	r0, [r7, r4]
 997 0166 0434     		adds	r4, r4, #4
 998 0168 102C     		cmp	r4, #16
 999 016a 05F50075 		add	r5, r5, #512
 1000 016e F1D1     		bne	.L179
 1001 0170 484C     		ldr	r4, .L198+28
 1002 0172 494D     		ldr	r5, .L198+32
 1003              	.L181:
 1004 0174 2046     		mov	r0, r4
 1005 0176 FFF7FEFF 		bl	_ZN5amiro8VCNL402026getProximityScaledWoOffsetEv
 1006 017a 04F50074 		add	r4, r4, #512
 1007 017e B442     		cmp	r4, r6
 1008 0180 45F8040F 		str	r0, [r5, #4]!
 1009 0184 F6D1     		bne	.L181
 1010 0186 4548     		ldr	r0, .L198+36
 1011 0188 4549     		ldr	r1, .L198+40
 1012 018a FA68     		ldr	r2, [r7, #12]
 1013 018c 3B68     		ldr	r3, [r7]
 1014 018e FFF7FEFF 		bl	_ZL8chprintfP20BaseSequentialStreamPKcz.constprop.1
 1015 0192 B9F1000F 		cmp	r9, #0
ARM GAS  /tmp/cccS6RH8.s 			page 19


 1016 0196 38D1     		bne	.L182
 1017 0198 3D48     		ldr	r0, .L198+24
 1018 019a 02A9     		add	r1, sp, #8
 1019 019c FFF7FEFF 		bl	_Z13lineFollowingRA4_iRA2_i
 1020              	.L183:
 1021 01a0 0121     		movs	r1, #1
 1022 01a2 4048     		ldr	r0, .L198+44
 1023 01a4 FFF7FEFF 		bl	_ZN5amiro23ControllerAreaNetworkRx21getProximityRingValueEi
 1024 01a8 0321     		movs	r1, #3
 1025 01aa 3E48     		ldr	r0, .L198+44
 1026 01ac FFF7FEFF 		bl	_ZN5amiro23ControllerAreaNetworkRx21getProximityRingValueEi
 1027 01b0 0421     		movs	r1, #4
 1028 01b2 0446     		mov	r4, r0
 1029 01b4 3B48     		ldr	r0, .L198+44
 1030 01b6 FFF7FEFF 		bl	_ZN5amiro23ControllerAreaNetworkRx21getProximityRingValueEi
 1031 01ba 2246     		mov	r2, r4
 1032 01bc 0346     		mov	r3, r0
 1033 01be 3A49     		ldr	r1, .L198+48
 1034 01c0 3648     		ldr	r0, .L198+36
 1035 01c2 FFF7FEFF 		bl	_ZL8chprintfP20BaseSequentialStreamPKcz.constprop.1
 1036 01c6 3748     		ldr	r0, .L198+44
 1037 01c8 0321     		movs	r1, #3
 1038 01ca FFF7FEFF 		bl	_ZN5amiro23ControllerAreaNetworkRx21getProximityRingValueEi
 1039 01ce B0F5167F 		cmp	r0, #600
 1040 01d2 25D3     		bcc	.L196
 1041              	.L184:
 1042 01d4 3348     		ldr	r0, .L198+44
 1043 01d6 0321     		movs	r1, #3
 1044 01d8 FFF7FEFF 		bl	_ZN5amiro23ControllerAreaNetworkRx21getProximityRingValueEi
 1045 01dc B0F5966F 		cmp	r0, #1200
 1046 01e0 32D3     		bcc	.L197
 1047              	.L187:
 1048 01e2 0021     		movs	r1, #0
 1049 01e4 0A46     		mov	r2, r1
 1050 01e6 3148     		ldr	r0, .L198+52
 1051 01e8 FFF7FEFF 		bl	_ZN5amiro12MotorControl12setTargetRPMEll
 1052 01ec 4FF00109 		mov	r9, #1
 1053              	.L177:
 1054 01f0 3F20     		movs	r0, #63
 1055 01f2 FFF7FEFF 		bl	_ZN10chibios_rt10BaseThread5sleepEm
 1056 01f6 FFF7FEFF 		bl	_ZN10chibios_rt10BaseThread15shouldTerminateEv
 1057 01fa 0446     		mov	r4, r0
 1058 01fc 0028     		cmp	r0, #0
 1059 01fe 3FF41EAF 		beq	.L188
 1060              	.L194:
 1061 0202 0020     		movs	r0, #0
 1062 0204 04B0     		add	sp, sp, #16
 1063              		@ sp needed
 1064 0206 BDE8F087 		pop	{r4, r5, r6, r7, r8, r9, r10, pc}
 1065              	.L182:
 1066 020a 02A8     		add	r0, sp, #8
 1067 020c FFF7FEFF 		bl	_Z13wallFollowingRA2_i
 1068 0210 C6E7     		b	.L183
 1069              	.L195:
 1070 0212 2146     		mov	r1, r4
 1071 0214 2246     		mov	r2, r4
 1072 0216 2548     		ldr	r0, .L198+52
ARM GAS  /tmp/cccS6RH8.s 			page 20


 1073 0218 2C70     		strb	r4, [r5]
 1074 021a FFF7FEFF 		bl	_ZN5amiro12MotorControl12setTargetRPMEll
 1075 021e 1FE7     		b	.L176
 1076              	.L196:
 1077 0220 2048     		ldr	r0, .L198+44
 1078 0222 0421     		movs	r1, #4
 1079 0224 FFF7FEFF 		bl	_ZN5amiro23ControllerAreaNetworkRx21getProximityRingValueEi
 1080 0228 B0F5167F 		cmp	r0, #600
 1081 022c D2D2     		bcs	.L184
 1082 022e 204B     		ldr	r3, .L198+56
 1083 0230 0299     		ldr	r1, [sp, #8]
 1084 0232 039A     		ldr	r2, [sp, #12]
 1085 0234 03FB01F1 		mul	r1, r3, r1
 1086 0238 03FB02F2 		mul	r2, r3, r2
 1087 023c 1B48     		ldr	r0, .L198+52
 1088 023e FFF7FEFF 		bl	_ZN5amiro12MotorControl12setTargetRPMEll
 1089 0242 4FF00009 		mov	r9, #0
 1090 0246 D3E7     		b	.L177
 1091              	.L197:
 1092 0248 1648     		ldr	r0, .L198+44
 1093 024a 0421     		movs	r1, #4
 1094 024c FFF7FEFF 		bl	_ZN5amiro23ControllerAreaNetworkRx21getProximityRingValueEi
 1095 0250 B0F5966F 		cmp	r0, #1200
 1096 0254 C5D2     		bcs	.L187
 1097 0256 0398     		ldr	r0, [sp, #12]
 1098 0258 0299     		ldr	r1, [sp, #8]
 1099 025a 154B     		ldr	r3, .L198+56
 1100 025c 0222     		movs	r2, #2
 1101 025e 91FBF2F1 		sdiv	r1, r1, r2
 1102 0262 90FBF2F2 		sdiv	r2, r0, r2
 1103 0266 03FB01F1 		mul	r1, r3, r1
 1104 026a 03FB02F2 		mul	r2, r3, r2
 1105 026e 0F48     		ldr	r0, .L198+52
 1106 0270 FFF7FEFF 		bl	_ZN5amiro12MotorControl12setTargetRPMEll
 1107 0274 BCE7     		b	.L177
 1108              	.L199:
 1109 0276 00BF     		.align	2
 1110              	.L198:
 1111 0278 A02D0000 		.word	global+11680
 1112 027c 481A0000 		.word	global+6728
 1113 0280 981C0000 		.word	global+7320
 1114 0284 00000000 		.word	.LANCHOR8
 1115 0288 00000000 		.word	.LANCHOR7
 1116 028c 48020000 		.word	global+584
 1117 0290 00000000 		.word	.LANCHOR10
 1118 0294 480A0000 		.word	global+2632
 1119 0298 FCFFFFFF 		.word	.LANCHOR6-4
 1120 029c 00000000 		.word	SD1
 1121 02a0 00000000 		.word	.LC0
 1122 02a4 382F0000 		.word	global+12088
 1123 02a8 0C000000 		.word	.LC1
 1124 02ac F8220000 		.word	global+8952
 1125 02b0 40420F00 		.word	1000000
 1126 02b4 00000000 		.word	.LANCHOR9
 1127              		.size	_ZN5amiro10UserThread4mainEv, .-_ZN5amiro10UserThread4mainEv
 1128 02b8 AFF30080 		.section	.text._ZN5amiro10UserThreadC2Ev,"ax",%progbits
 1128      AFF30080 
ARM GAS  /tmp/cccS6RH8.s 			page 21


 1129              		.align	2
 1130              		.p2align 4,,15
 1131              		.global	_ZN5amiro10UserThreadC2Ev
 1132              		.thumb
 1133              		.thumb_func
 1134              		.type	_ZN5amiro10UserThreadC2Ev, %function
 1135              	_ZN5amiro10UserThreadC2Ev:
 1136              		@ args = 0, pretend = 0, frame = 0
 1137              		@ frame_needed = 0, uses_anonymous_args = 0
 1138 0000 10B5     		push	{r4, lr}
 1139 0002 0446     		mov	r4, r0
 1140 0004 FFF7FEFF 		bl	_ZN10chibios_rt10BaseThreadC2Ev
 1141 0008 014B     		ldr	r3, .L201
 1142 000a 2046     		mov	r0, r4
 1143 000c 2360     		str	r3, [r4]
 1144 000e 10BD     		pop	{r4, pc}
 1145              	.L202:
 1146              		.align	2
 1147              	.L201:
 1148 0010 08000000 		.word	.LANCHOR0+8
 1149              		.size	_ZN5amiro10UserThreadC2Ev, .-_ZN5amiro10UserThreadC2Ev
 1150              		.global	_ZN5amiro10UserThreadC1Ev
 1151              		.thumb_set _ZN5amiro10UserThreadC1Ev,_ZN5amiro10UserThreadC2Ev
 1152 0014 AFF30080 		.section	.text.startup._GLOBAL__sub_I_policy,"ax",%progbits
 1152      AFF30080 
 1152      AFF30080 
 1153              		.align	2
 1154              		.p2align 4,,15
 1155              		.thumb
 1156              		.thumb_func
 1157              		.type	_GLOBAL__sub_I_policy, %function
 1158              	_GLOBAL__sub_I_policy:
 1159              		@ args = 0, pretend = 0, frame = 0
 1160              		@ frame_needed = 0, uses_anonymous_args = 0
 1161              		@ link register save eliminated.
 1162 0000 F0B4     		push	{r4, r5, r6, r7}
 1163 0002 0A49     		ldr	r1, .L204
 1164 0004 0A4D     		ldr	r5, .L204+4
 1165 0006 0B4E     		ldr	r6, .L204+8
 1166 0008 0B4C     		ldr	r4, .L204+12
 1167 000a 0C4B     		ldr	r3, .L204+16
 1168 000c 3220     		movs	r0, #50
 1169 000e 1422     		movs	r2, #20
 1170 0010 6FF01307 		mvn	r7, #19
 1171 0014 4FF01E0C 		mov	ip, #30
 1172 0018 2E60     		str	r6, [r5]
 1173 001a 6E60     		str	r6, [r5, #4]
 1174 001c 84E80110 		stmia	r4, {r0, ip}
 1175 0020 83E88400 		stmia	r3, {r2, r7}
 1176 0024 F0BC     		pop	{r4, r5, r6, r7}
 1177 0026 81E80500 		stmia	r1, {r0, r2}
 1178 002a 7047     		bx	lr
 1179              	.L205:
 1180              		.align	2
 1181              	.L204:
 1182 002c 00000000 		.word	.LANCHOR2
 1183 0030 00000000 		.word	.LANCHOR11
ARM GAS  /tmp/cccS6RH8.s 			page 22


 1184 0034 A0860100 		.word	100000
 1185 0038 00000000 		.word	.LANCHOR1
 1186 003c 00000000 		.word	.LANCHOR3
 1187              		.size	_GLOBAL__sub_I_policy, .-_GLOBAL__sub_I_policy
 1188              		.section	.init_array,"aw",%init_array
 1189              		.align	2
 1190 0000 00000000 		.word	_GLOBAL__sub_I_policy(target1)
 1191              		.weak	_ZTVN10chibios_rt16BaseStaticThreadILi1024EEE
 1192              		.section	.rodata._ZTVN10chibios_rt16BaseStaticThreadILi1024EEE,"aG",%progbits,_ZTVN10chibios_rt16B
 1193              		.align	3
 1194              		.type	_ZTVN10chibios_rt16BaseStaticThreadILi1024EEE, %object
 1195              		.size	_ZTVN10chibios_rt16BaseStaticThreadILi1024EEE, 20
 1196              	_ZTVN10chibios_rt16BaseStaticThreadILi1024EEE:
 1197 0000 00000000 		.word	0
 1198 0004 00000000 		.word	0
 1199 0008 00000000 		.word	_ZN10chibios_rt15ThreadReference4stopEv
 1200 000c 00000000 		.word	_ZN10chibios_rt10BaseThread4mainEv
 1201 0010 00000000 		.word	_ZN10chibios_rt16BaseStaticThreadILi1024EE5startEm
 1202              		.global	_ZTVN5amiro10UserThreadE
 1203              		.global	prox
 1204              		.global	vcnl4020Proximity
 1205              		.global	vcnl4020AmbientLight
 1206              		.global	colorcycle
 1207              		.global	policyCounter
 1208              		.global	running
 1209              		.global	accel_z
 1210              		.global	policy
 1211 0014 00000000 		.section	.bss.policyCounter,"aw",%nobits
 1212              		.align	2
 1213              		.set	.LANCHOR4,. + 0
 1214              		.type	policyCounter, %object
 1215              		.size	policyCounter, 4
 1216              	policyCounter:
 1217 0000 00000000 		.space	4
 1218              		.section	.bss._ZN5amiro9constants12DiWheelDriveL10wheelErrorE,"aw",%nobits
 1219              		.align	2
 1220              		.set	.LANCHOR11,. + 0
 1221              		.type	_ZN5amiro9constants12DiWheelDriveL10wheelErrorE, %object
 1222              		.size	_ZN5amiro9constants12DiWheelDriveL10wheelErrorE, 8
 1223              	_ZN5amiro9constants12DiWheelDriveL10wheelErrorE:
 1224 0000 00000000 		.space	8
 1224      00000000 
 1225              		.section	.bss._ZL12rpmHardRight,"aw",%nobits
 1226              		.align	2
 1227              		.set	.LANCHOR2,. + 0
 1228              		.type	_ZL12rpmHardRight, %object
 1229              		.size	_ZL12rpmHardRight, 8
 1230              	_ZL12rpmHardRight:
 1231 0000 00000000 		.space	8
 1231      00000000 
 1232              		.section	.bss.running,"aw",%nobits
 1233              		.set	.LANCHOR7,. + 0
 1234              		.type	running, %object
 1235              		.size	running, 1
 1236              	running:
 1237 0000 00       		.space	1
 1238              		.section	.rodata.str1.4,"aMS",%progbits,1
ARM GAS  /tmp/cccS6RH8.s 			page 23


 1239              		.align	2
 1240              	.LC0:
 1241 0000 25303464 		.ascii	"%04d %04d \012\000"
 1241      20253034 
 1241      64200A00 
 1242              	.LC1:
 1243 000c 25303464 		.ascii	"%04d  %04d \012\000"
 1243      20202530 
 1243      3464200A 
 1243      00
 1244 0019 000000   		.section	.bss.vcnl4020AmbientLight,"aw",%nobits
 1245              		.align	2
 1246              		.set	.LANCHOR9,. + 0
 1247              		.type	vcnl4020AmbientLight, %object
 1248              		.size	vcnl4020AmbientLight, 16
 1249              	vcnl4020AmbientLight:
 1250 0000 00000000 		.space	16
 1250      00000000 
 1250      00000000 
 1250      00000000 
 1251              		.section	.bss._ZL12rpmSoftRight,"aw",%nobits
 1252              		.align	2
 1253              		.set	.LANCHOR1,. + 0
 1254              		.type	_ZL12rpmSoftRight, %object
 1255              		.size	_ZL12rpmSoftRight, 8
 1256              	_ZL12rpmSoftRight:
 1257 0000 00000000 		.space	8
 1257      00000000 
 1258              		.section	.bss.prox,"aw",%nobits
 1259              		.align	2
 1260              		.set	.LANCHOR6,. + 0
 1261              		.type	prox, %object
 1262              		.size	prox, 32
 1263              	prox:
 1264 0000 00000000 		.space	32
 1264      00000000 
 1264      00000000 
 1264      00000000 
 1264      00000000 
 1265              		.section	.bss.colorcycle,"aw",%nobits
 1266              		.align	2
 1267              		.type	colorcycle, %object
 1268              		.size	colorcycle, 4
 1269              	colorcycle:
 1270 0000 00000000 		.space	4
 1271              		.section	.bss.accel_z,"aw",%nobits
 1272              		.align	1
 1273              		.set	.LANCHOR8,. + 0
 1274              		.type	accel_z, %object
 1275              		.size	accel_z, 2
 1276              	accel_z:
 1277 0000 0000     		.space	2
 1278              		.section	.rodata._ZTVN5amiro10UserThreadE,"a",%progbits
 1279              		.align	3
 1280              		.set	.LANCHOR0,. + 0
 1281              		.type	_ZTVN5amiro10UserThreadE, %object
 1282              		.size	_ZTVN5amiro10UserThreadE, 28
ARM GAS  /tmp/cccS6RH8.s 			page 24


 1283              	_ZTVN5amiro10UserThreadE:
 1284 0000 00000000 		.word	0
 1285 0004 00000000 		.word	0
 1286 0008 00000000 		.word	_ZN10chibios_rt15ThreadReference4stopEv
 1287 000c 00000000 		.word	_ZN5amiro10UserThread4mainEv
 1288 0010 00000000 		.word	_ZN10chibios_rt16BaseStaticThreadILi1024EE5startEm
 1289 0014 00000000 		.word	_ZN5amiro10UserThreadD1Ev
 1290 0018 00000000 		.word	_ZN5amiro10UserThreadD0Ev
 1291 001c 00000000 		.section	.data.policy,"aw",%progbits
 1292              		.align	2
 1293              		.set	.LANCHOR5,. + 0
 1294              		.type	policy, %object
 1295              		.size	policy, 13
 1296              	policy:
 1297 0000 02       		.byte	2
 1298 0001 01       		.byte	1
 1299 0002 01       		.byte	1
 1300 0003 02       		.byte	2
 1301 0004 01       		.byte	1
 1302 0005 02       		.byte	2
 1303 0006 01       		.byte	1
 1304 0007 02       		.byte	2
 1305 0008 02       		.byte	2
 1306 0009 01       		.byte	1
 1307 000a 02       		.byte	2
 1308 000b 01       		.byte	1
 1309 000c 02       		.byte	2
 1310 000d 000000   		.section	.bss.vcnl4020Proximity,"aw",%nobits
 1311              		.align	2
 1312              		.set	.LANCHOR10,. + 0
 1313              		.type	vcnl4020Proximity, %object
 1314              		.size	vcnl4020Proximity, 16
 1315              	vcnl4020Proximity:
 1316 0000 00000000 		.space	16
 1316      00000000 
 1316      00000000 
 1316      00000000 
 1317              		.section	.bss._ZL12rpmTurnRight,"aw",%nobits
 1318              		.align	2
 1319              		.set	.LANCHOR3,. + 0
 1320              		.type	_ZL12rpmTurnRight, %object
 1321              		.size	_ZL12rpmTurnRight, 8
 1322              	_ZL12rpmTurnRight:
 1323 0000 00000000 		.space	8
 1323      00000000 
 1324              		.ident	"GCC: (GNU Tools for ARM Embedded Processors) 4.8.3 20140228 (release) [ARM/embedded-4_8-br
ARM GAS  /tmp/cccS6RH8.s 			page 25

